target datalayout = "e-m:e-p270:32:32-p271:32:32-p272:64:64-i64:64-i128:128-f80:128-n8:16:32:64-S128"
target triple = "x86_64-pc-linux-gnu"

; Function Attrs: nounwind uwtable
define internal void @pred4x4_left_dc_14_c(ptr noundef %0, ptr noundef %1, i64 noundef %2) #1 {
  %4 = alloca ptr, align 8
  %5 = alloca ptr, align 8
  %6 = alloca i64, align 8
  %7 = alloca ptr, align 8
  %8 = alloca i32, align 4
  %9 = alloca i32, align 4
  %10 = alloca i64, align 8
  store ptr %0, ptr %4, align 8, !tbaa !12
  store ptr %1, ptr %5, align 8, !tbaa !12
  store i64 %2, ptr %6, align 8, !tbaa !14
  call void @llvm.lifetime.start.p0(i64 8, ptr %7) #9
  %11 = load ptr, ptr %4, align 8, !tbaa !12
  store ptr %11, ptr %7, align 8, !tbaa !16
  call void @llvm.lifetime.start.p0(i64 4, ptr %8) #9
  %12 = load i64, ptr %6, align 8, !tbaa !14
  %13 = ashr i64 %12, 1
  %14 = trunc i64 %13 to i32
  store i32 %14, ptr %8, align 4, !tbaa !9
  call void @llvm.lifetime.start.p0(i64 4, ptr %9) #9
  %15 = load ptr, ptr %7, align 8, !tbaa !16
  %16 = load i32, ptr %8, align 4, !tbaa !9
  %17 = mul nsw i32 0, %16
  %18 = add nsw i32 -1, %17
  %19 = sext i32 %18 to i64
  %20 = getelementptr inbounds i16, ptr %15, i64 %19
  %21 = load i16, ptr %20, align 2, !tbaa !19
  %22 = zext i16 %21 to i32
  %23 = load ptr, ptr %7, align 8, !tbaa !16
  %24 = load i32, ptr %8, align 4, !tbaa !9
  %25 = mul nsw i32 1, %24
  %26 = add nsw i32 -1, %25
  %27 = sext i32 %26 to i64
  %28 = getelementptr inbounds i16, ptr %23, i64 %27
  %29 = load i16, ptr %28, align 2, !tbaa !19
  %30 = zext i16 %29 to i32
  %31 = add nsw i32 %22, %30
  %32 = load ptr, ptr %7, align 8, !tbaa !16
  %33 = load i32, ptr %8, align 4, !tbaa !9
  %34 = mul nsw i32 2, %33
  %35 = add nsw i32 -1, %34
  %36 = sext i32 %35 to i64
  %37 = getelementptr inbounds i16, ptr %32, i64 %36
  %38 = load i16, ptr %37, align 2, !tbaa !19
  %39 = zext i16 %38 to i32
  %40 = add nsw i32 %31, %39
  %41 = load ptr, ptr %7, align 8, !tbaa !16
  %42 = load i32, ptr %8, align 4, !tbaa !9
  %43 = mul nsw i32 3, %42
  %44 = add nsw i32 -1, %43
  %45 = sext i32 %44 to i64
  %46 = getelementptr inbounds i16, ptr %41, i64 %45
  %47 = load i16, ptr %46, align 2, !tbaa !19
  %48 = zext i16 %47 to i32
  %49 = add nsw i32 %40, %48
  %50 = add nsw i32 %49, 2
  %51 = ashr i32 %50, 2
  store i32 %51, ptr %9, align 4, !tbaa !9
  call void @llvm.lifetime.start.p0(i64 8, ptr %10) #9
  %52 = load i32, ptr %9, align 4, !tbaa !9
  %53 = sext i32 %52 to i64
  %54 = mul i64 %53, 281479271743489
  store i64 %54, ptr %10, align 8, !tbaa !14
  %55 = load i64, ptr %10, align 8, !tbaa !14
  %56 = load ptr, ptr %7, align 8, !tbaa !16
  %57 = load i32, ptr %8, align 4, !tbaa !9
  %58 = mul nsw i32 0, %57
  %59 = sext i32 %58 to i64
  %60 = getelementptr inbounds i16, ptr %56, i64 %59
  store i64 %55, ptr %60, align 8, !tbaa !18
  %61 = load i64, ptr %10, align 8, !tbaa !14
  %62 = load ptr, ptr %7, align 8, !tbaa !16
  %63 = load i32, ptr %8, align 4, !tbaa !9
  %64 = mul nsw i32 1, %63
  %65 = sext i32 %64 to i64
  %66 = getelementptr inbounds i16, ptr %62, i64 %65
  store i64 %61, ptr %66, align 8, !tbaa !18
  %67 = load i64, ptr %10, align 8, !tbaa !14
  %68 = load ptr, ptr %7, align 8, !tbaa !16
  %69 = load i32, ptr %8, align 4, !tbaa !9
  %70 = mul nsw i32 2, %69
  %71 = sext i32 %70 to i64
  %72 = getelementptr inbounds i16, ptr %68, i64 %71
  store i64 %67, ptr %72, align 8, !tbaa !18
  %73 = load i64, ptr %10, align 8, !tbaa !14
  %74 = load ptr, ptr %7, align 8, !tbaa !16
  %75 = load i32, ptr %8, align 4, !tbaa !9
  %76 = mul nsw i32 3, %75
  %77 = sext i32 %76 to i64
  %78 = getelementptr inbounds i16, ptr %74, i64 %77
  store i64 %73, ptr %78, align 8, !tbaa !18
  call void @llvm.lifetime.end.p0(i64 8, ptr %10) #9
  call void @llvm.lifetime.end.p0(i64 4, ptr %9) #9
  call void @llvm.lifetime.end.p0(i64 4, ptr %8) #9
  call void @llvm.lifetime.end.p0(i64 8, ptr %7) #9
  ret void
}