; Function Attrs: mustprogress nofree norecurse nosync nounwind willreturn memory(argmem: readwrite) uwtable
define internal void @pred4x4_left_dc_14_c(ptr noundef captures(none) %0, ptr readnone captures(none) %1, i64 noundef %2) #1 {
  %4 = lshr i64 %2, 1
  %5 = trunc i64 %4 to i32
  %6 = getelementptr inbounds i8, ptr %0, i64 -2
  %7 = load i16, ptr %6, align 2, !tbaa !9
  %8 = zext i16 %7 to i64
  %9 = shl i64 %4, 32
  %sext = add i64 %9, -4294967296
  %10 = ashr exact i64 %sext, 31
  %11 = getelementptr inbounds i8, ptr %0, i64 %10
  %12 = load i16, ptr %11, align 2, !tbaa !9
  %13 = zext i16 %12 to i64
  %14 = shl nsw i32 %5, 1
  %15 = sext i32 %14 to i64
  %16 = getelementptr i16, ptr %0, i64 %15
  %17 = getelementptr i8, ptr %16, i64 -2
  %18 = load i16, ptr %17, align 2, !tbaa !9
  %19 = zext i16 %18 to i64
  %sext23 = mul i64 %4, 12884901888
  %20 = ashr exact i64 %sext23, 31
  %21 = getelementptr i8, ptr %0, i64 %20
  %22 = getelementptr i8, ptr %21, i64 -2
  %23 = load i16, ptr %22, align 2, !tbaa !9
  %24 = zext i16 %23 to i64
  %25 = add nuw nsw i64 %8, 2
  %26 = add nuw nsw i64 %25, %13
  %27 = add nuw nsw i64 %26, %19
  %28 = add nuw nsw i64 %27, %24
  %29 = lshr i64 %28, 2
  %30 = mul nuw i64 %29, 281479271743489
  store i64 %30, ptr %0, align 8, !tbaa !8
  %31 = ashr exact i64 %9, 31
  %32 = getelementptr inbounds i8, ptr %0, i64 %31
  store i64 %30, ptr %32, align 8, !tbaa !8
  store i64 %30, ptr %16, align 8, !tbaa !8
  store i64 %30, ptr %21, align 8, !tbaa !8
  ret void
}